; Function Attrs: mustprogress nounwind uwtable
define void @_ZN6casadi17SundialsInterfaceD2Ev(ptr noundef nonnull align 8 dereferenceable(2120) %0) unnamed_addr #4 align 2 personality ptr @__gxx_personality_v0 {
  store ptr getelementptr inbounds ({ [123 x ptr], [3 x ptr] }, ptr @_ZTVN6casadi17SundialsInterfaceE, i64 0, i32 0, i64 2), ptr %0, align 8
  %2 = getelementptr inbounds i8, ptr %0, i64 1520
  store ptr getelementptr inbounds ({ [123 x ptr], [3 x ptr] }, ptr @_ZTVN6casadi17SundialsInterfaceE, i64 0, i32 1, i64 2), ptr %2, align 8
  %3 = getelementptr inbounds i8, ptr %0, i64 2104
  tail call void @_ZN6casadi12SharedObjectD2Ev(ptr noundef nonnull align 8 dereferenceable(8) %3) #23
  %4 = getelementptr inbounds i8, ptr %0, i64 2000
  %5 = getelementptr inbounds i8, ptr %0, i64 2016
  %6 = load ptr, ptr %5, align 8
  invoke void @_ZNSt8_Rb_treeINSt7__cxx1112basic_stringIcSt11char_traitsIcESaIcEEESt4pairIKS5_N6casadi11GenericTypeEESt10_Select1stISA_ESt4lessIS5_ESaISA_EE8_M_eraseEPSt13_Rb_tree_nodeISA_E(ptr noundef nonnull align 8 dereferenceable(48) %4, ptr noundef %6)
          to label %_ZNSt3mapINSt7__cxx1112basic_stringIcSt11char_traitsIcESaIcEEEN6casadi11GenericTypeESt4lessIS5_ESaISt4pairIKS5_S7_EEED2Ev.exit unwind label %7

7:                                                ; preds = %1
  %8 = landingpad { ptr, i32 }
          catch ptr null
  %9 = extractvalue { ptr, i32 } %8, 0
  tail call void @__clang_call_terminate(ptr %9) #25
  unreachable

_ZNSt3mapINSt7__cxx1112basic_stringIcSt11char_traitsIcESaIcEEEN6casadi11GenericTypeESt4lessIS5_ESaISt4pairIKS5_S7_EEED2Ev.exit: ; preds = %1
  %10 = getelementptr inbounds i8, ptr %0, i64 1968
  tail call void @_ZNSt7__cxx1112basic_stringIcSt11char_traitsIcESaIcEED1Ev(ptr noundef nonnull align 8 dereferenceable(32) %10) #23
  tail call void @_ZN6casadi10IntegratorD2Ev(ptr noundef nonnull align 8 dereferenceable(1905) %0) #23
  ret void
}